target datalayout = "e-m:e-p270:32:32-p271:32:32-p272:64:64-i64:64-i128:128-f80:128-n8:16:32:64-S128"
target triple = "x86_64-unknown-linux-gnu"

%"class.net::QuicSentPacketManager" = type { %"class.net::QuicSentPacketManagerInterface", %"class.net::QuicUnackedPacketMap", %class.linked_hash_map, i32, i8, ptr, ptr, ptr, ptr, ptr, i64, %"class.net::RttStats", %"class.std::unique_ptr", ptr, %"class.net::GeneralLossAlgorithm", i8, i64, i64, i64, i64, i64, i64, i64, i64, i8, i8, i8, i8, %"class.std::vector", %"class.std::vector", i64, i16, [6 x i8], %"class.net::PacingSender", i8, %"class.net::QuicSustainedBandwidthRecorder" }
%"class.net::QuicSentPacketManagerInterface" = type { ptr }
%"class.net::QuicUnackedPacketMap" = type { i64, i64, %"class.std::deque", i64, i64, i64 }
%"class.std::deque" = type { %"class.std::_Deque_base" }
%"class.std::_Deque_base" = type { %"struct.std::_Deque_base<net::TransmissionInfo, std::allocator<net::TransmissionInfo>>::_Deque_impl" }
%"struct.std::_Deque_base<net::TransmissionInfo, std::allocator<net::TransmissionInfo>>::_Deque_impl" = type { %"struct.std::_Deque_base<net::TransmissionInfo, std::allocator<net::TransmissionInfo>>::_Deque_impl_data" }
%"struct.std::_Deque_base<net::TransmissionInfo, std::allocator<net::TransmissionInfo>>::_Deque_impl_data" = type { ptr, i64, %"struct.std::_Deque_iterator", %"struct.std::_Deque_iterator" }
%"struct.std::_Deque_iterator" = type { ptr, ptr, ptr, ptr }
%class.linked_hash_map = type { %"class.std::unordered_map", %"class.std::__cxx11::list" }
%"class.std::unordered_map" = type { %"class.std::_Hashtable" }
%"class.std::_Hashtable" = type { ptr, i64, %"struct.std::__detail::_Hash_node_base", i64, %"struct.std::__detail::_Prime_rehash_policy", ptr }
%"struct.std::__detail::_Hash_node_base" = type { ptr }
%"struct.std::__detail::_Prime_rehash_policy" = type { float, i64 }
%"class.std::__cxx11::list" = type { %"class.std::__cxx11::_List_base" }
%"class.std::__cxx11::_List_base" = type { %"struct.std::__cxx11::_List_base<std::pair<unsigned long, net::TransmissionType>, std::allocator<std::pair<unsigned long, net::TransmissionType>>>::_List_impl" }
%"struct.std::__cxx11::_List_base<std::pair<unsigned long, net::TransmissionType>, std::allocator<std::pair<unsigned long, net::TransmissionType>>>::_List_impl" = type { %"struct.std::__detail::_List_node_header" }
%"struct.std::__detail::_List_node_header" = type { %"struct.std::__detail::_List_node_base", i64 }
%"struct.std::__detail::_List_node_base" = type { ptr, ptr }
%"class.net::RttStats" = type { %"class.net::QuicTime::Delta", %"class.net::QuicTime::Delta", %"class.net::QuicTime::Delta", %"class.net::QuicTime::Delta", %"class.net::QuicTime::Delta", i64, %"class.net::QuicTime::Delta", %"class.net::QuicTime", i32, %"class.net::WindowedFilter" }
%"class.net::QuicTime::Delta" = type { %"class.base::TimeDelta", i64 }
%"class.base::TimeDelta" = type { i64 }
%"class.net::QuicTime" = type { i64 }
%"class.net::WindowedFilter" = type { %"class.net::QuicTime::Delta", %"class.net::QuicTime::Delta", [3 x %"struct.net::WindowedFilter<net::QuicTime::Delta, net::MinFilter<net::QuicTime::Delta>, net::QuicTime, net::QuicTime::Delta>::Sample"] }
%"struct.net::WindowedFilter<net::QuicTime::Delta, net::MinFilter<net::QuicTime::Delta>, net::QuicTime, net::QuicTime::Delta>::Sample" = type { %"class.net::QuicTime::Delta", %"class.net::QuicTime" }
%"class.std::unique_ptr" = type { %"struct.std::__uniq_ptr_data" }
%"struct.std::__uniq_ptr_data" = type { %"class.std::__uniq_ptr_impl" }
%"class.std::__uniq_ptr_impl" = type { %"class.std::tuple" }
%"class.std::tuple" = type { %"struct.std::_Tuple_impl" }
%"struct.std::_Tuple_impl" = type { %"struct.std::_Head_base.9" }
%"struct.std::_Head_base.9" = type { ptr }
%"class.net::GeneralLossAlgorithm" = type { %"class.net::LossDetectionInterface", %"class.net::QuicTime", i64, i32, i32 }
%"class.net::LossDetectionInterface" = type { ptr }
%"class.std::vector" = type { %"struct.std::_Vector_base" }
%"struct.std::_Vector_base" = type { %"struct.std::_Vector_base<std::pair<unsigned long, unsigned short>, std::allocator<std::pair<unsigned long, unsigned short>>>::_Vector_impl" }
%"struct.std::_Vector_base<std::pair<unsigned long, unsigned short>, std::allocator<std::pair<unsigned long, unsigned short>>>::_Vector_impl" = type { %"struct.std::_Vector_base<std::pair<unsigned long, unsigned short>, std::allocator<std::pair<unsigned long, unsigned short>>>::_Vector_impl_data" }
%"struct.std::_Vector_base<std::pair<unsigned long, unsigned short>, std::allocator<std::pair<unsigned long, unsigned short>>>::_Vector_impl_data" = type { ptr, ptr, ptr }
%"class.net::PacingSender" = type <{ ptr, %"class.net::QuicBandwidth", i32, [4 x i8], %"class.net::QuicTime", %"class.net::QuicTime", i8, [7 x i8] }>
%"class.net::QuicBandwidth" = type { i64 }
%"class.net::QuicSustainedBandwidthRecorder" = type { i8, i8, i8, %"class.net::QuicBandwidth", %"class.net::QuicBandwidth", i64, %"class.net::QuicTime" }

@_ZN3net12_GLOBAL__N_119kMaxRetransmissionsE = internal constant i64 10, align 8

; Function Attrs: mustprogress nounwind uwtable
define linkonce_odr dso_local noundef nonnull align 8 dereferenceable(8) ptr @_ZNSt10_Head_baseILm0EPN3net22SendAlgorithmInterfaceELb0EE7_M_headERKS3_(ptr noundef nonnull align 8 dereferenceable(8) %__b) #1 comdat align 2 {
entry:
  %__b.addr = alloca ptr, align 8
  store ptr %__b, ptr %__b.addr, align 8
  %0 = load ptr, ptr %__b.addr, align 8
  %_M_head_impl = getelementptr inbounds %"struct.std::_Head_base.9", ptr %0, i32 0, i32 0
  ret ptr %_M_head_impl
}

; Function Attrs: mustprogress nounwind uwtable
define linkonce_odr dso_local noundef nonnull align 8 dereferenceable(8) ptr @_ZNSt11_Tuple_implILm0EJPN3net22SendAlgorithmInterfaceESt14default_deleteIS1_EEE7_M_headERKS5_(ptr noundef nonnull align 8 dereferenceable(8) %__t) #1 comdat align 2 {
entry:
  %__t.addr = alloca ptr, align 8
  store ptr %__t, ptr %__t.addr, align 8
  %0 = load ptr, ptr %__t.addr, align 8
  %call = call noundef nonnull align 8 dereferenceable(8) ptr @_ZNSt10_Head_baseILm0EPN3net22SendAlgorithmInterfaceELb0EE7_M_headERKS3_(ptr noundef nonnull align 8 dereferenceable(8) %0) #11
  ret ptr %call
}

; Function Attrs: mustprogress nounwind uwtable
define linkonce_odr dso_local noundef nonnull align 8 dereferenceable(8) ptr @_ZSt12__get_helperILm0EPN3net22SendAlgorithmInterfaceEJSt14default_deleteIS1_EEERKT0_RKSt11_Tuple_implIXT_EJS5_DpT1_EE(ptr noundef nonnull align 8 dereferenceable(8) %__t) #1 comdat {
entry:
  %__t.addr = alloca ptr, align 8
  store ptr %__t, ptr %__t.addr, align 8
  %0 = load ptr, ptr %__t.addr, align 8
  %call = call noundef nonnull align 8 dereferenceable(8) ptr @_ZNSt11_Tuple_implILm0EJPN3net22SendAlgorithmInterfaceESt14default_deleteIS1_EEE7_M_headERKS5_(ptr noundef nonnull align 8 dereferenceable(8) %0) #11
  ret ptr %call
}

; Function Attrs: mustprogress nounwind uwtable
define linkonce_odr dso_local noundef nonnull align 8 dereferenceable(8) ptr @_ZSt3getILm0EJPN3net22SendAlgorithmInterfaceESt14default_deleteIS1_EEERKNSt13tuple_elementIXT_ESt5tupleIJDpT0_EEE4typeERKS9_(ptr noundef nonnull align 8 dereferenceable(8) %__t) #1 comdat {
entry:
  %__t.addr = alloca ptr, align 8
  store ptr %__t, ptr %__t.addr, align 8
  %0 = load ptr, ptr %__t.addr, align 8
  %call = call noundef nonnull align 8 dereferenceable(8) ptr @_ZSt12__get_helperILm0EPN3net22SendAlgorithmInterfaceEJSt14default_deleteIS1_EEERKT0_RKSt11_Tuple_implIXT_EJS5_DpT1_EE(ptr noundef nonnull align 8 dereferenceable(8) %0) #11
  ret ptr %call
}

; Function Attrs: mustprogress nounwind uwtable
define linkonce_odr dso_local void @_ZN4base9TimeDeltaC2Ev(ptr noundef nonnull align 8 dereferenceable(8) %this) unnamed_addr #1 comdat align 2 {
entry:
  %this.addr = alloca ptr, align 8
  store ptr %this, ptr %this.addr, align 8
  %this1 = load ptr, ptr %this.addr, align 8
  %delta_ = getelementptr inbounds %"class.base::TimeDelta", ptr %this1, i32 0, i32 0
  store i64 0, ptr %delta_, align 8
  ret void
}

; Function Attrs: mustprogress nounwind uwtable
define linkonce_odr dso_local noundef ptr @_ZNKSt15__uniq_ptr_implIN3net22SendAlgorithmInterfaceESt14default_deleteIS1_EE6_M_ptrEv(ptr noundef nonnull align 8 dereferenceable(8) %this) #1 comdat align 2 {
entry:
  %this.addr = alloca ptr, align 8
  store ptr %this, ptr %this.addr, align 8
  %this1 = load ptr, ptr %this.addr, align 8
  %_M_t = getelementptr inbounds %"class.std::__uniq_ptr_impl", ptr %this1, i32 0, i32 0
  %call = call noundef nonnull align 8 dereferenceable(8) ptr @_ZSt3getILm0EJPN3net22SendAlgorithmInterfaceESt14default_deleteIS1_EEERKNSt13tuple_elementIXT_ESt5tupleIJDpT0_EEE4typeERKS9_(ptr noundef nonnull align 8 dereferenceable(8) %_M_t) #11
  %0 = load ptr, ptr %call, align 8
  ret ptr %0
}

; Function Attrs: mustprogress nounwind uwtable
define linkonce_odr dso_local noundef nonnull align 8 dereferenceable(8) ptr @_ZN4base9TimeDeltaaSES0_(ptr noundef nonnull align 8 dereferenceable(8) %this, i64 %other.coerce) #1 comdat align 2 {
entry:
  %other = alloca %"class.base::TimeDelta", align 8
  %this.addr = alloca ptr, align 8
  %coerce.dive = getelementptr inbounds %"class.base::TimeDelta", ptr %other, i32 0, i32 0
  store i64 %other.coerce, ptr %coerce.dive, align 8
  store ptr %this, ptr %this.addr, align 8
  %this1 = load ptr, ptr %this.addr, align 8
  %delta_ = getelementptr inbounds %"class.base::TimeDelta", ptr %other, i32 0, i32 0
  %0 = load i64, ptr %delta_, align 8
  %delta_2 = getelementptr inbounds %"class.base::TimeDelta", ptr %this1, i32 0, i32 0
  store i64 %0, ptr %delta_2, align 8
  ret ptr %this1
}

; Function Attrs: mustprogress uwtable
define linkonce_odr dso_local void @_ZN3net8QuicTime5DeltaC2El(ptr noundef nonnull align 8 dereferenceable(16) %this, i64 noundef %time_offset) unnamed_addr #0 comdat align 2 {
entry:
  %this.addr = alloca ptr, align 8
  %time_offset.addr = alloca i64, align 8
  store ptr %this, ptr %this.addr, align 8
  store i64 %time_offset, ptr %time_offset.addr, align 8
  %this1 = load ptr, ptr %this.addr, align 8
  %delta_ = getelementptr inbounds %"class.net::QuicTime::Delta", ptr %this1, i32 0, i32 0
  call void @_ZN4base9TimeDeltaC2Ev(ptr noundef nonnull align 8 dereferenceable(8) %delta_)
  %time_offset_ = getelementptr inbounds %"class.net::QuicTime::Delta", ptr %this1, i32 0, i32 1
  %0 = load i64, ptr %time_offset.addr, align 8
  store i64 %0, ptr %time_offset_, align 8
  ret void
}

; Function Attrs: mustprogress nounwind uwtable
define linkonce_odr dso_local noundef ptr @_ZNKSt10unique_ptrIN3net22SendAlgorithmInterfaceESt14default_deleteIS1_EE3getEv(ptr noundef nonnull align 8 dereferenceable(8) %this) #1 comdat align 2 {
entry:
  %this.addr = alloca ptr, align 8
  store ptr %this, ptr %this.addr, align 8
  %this1 = load ptr, ptr %this.addr, align 8
  %_M_t = getelementptr inbounds %"class.std::unique_ptr", ptr %this1, i32 0, i32 0
  %call = call noundef ptr @_ZNKSt15__uniq_ptr_implIN3net22SendAlgorithmInterfaceESt14default_deleteIS1_EE6_M_ptrEv(ptr noundef nonnull align 8 dereferenceable(8) %_M_t) #11
  ret ptr %call
}

; Function Attrs: mustprogress uwtable
define linkonce_odr dso_local { i64, i64 } @_ZN3netmlENS_8QuicTime5DeltaEi(i64 %lhs.coerce0, i64 %lhs.coerce1, i32 noundef %rhs) #0 comdat {
entry:
  %retval = alloca %"class.net::QuicTime::Delta", align 8
  %lhs = alloca %"class.net::QuicTime::Delta", align 8
  %rhs.addr = alloca i32, align 4
  %0 = getelementptr inbounds { i64, i64 }, ptr %lhs, i32 0, i32 0
  store i64 %lhs.coerce0, ptr %0, align 8
  %1 = getelementptr inbounds { i64, i64 }, ptr %lhs, i32 0, i32 1
  store i64 %lhs.coerce1, ptr %1, align 8
  store i32 %rhs, ptr %rhs.addr, align 4
  %time_offset_ = getelementptr inbounds %"class.net::QuicTime::Delta", ptr %lhs, i32 0, i32 1
  %2 = load i64, ptr %time_offset_, align 8
  %3 = load i32, ptr %rhs.addr, align 4
  %conv = sext i32 %3 to i64
  %mul = mul nsw i64 %2, %conv
  call void @_ZN3net8QuicTime5DeltaC2El(ptr noundef nonnull align 8 dereferenceable(16) %retval, i64 noundef %mul)
  %4 = load { i64, i64 }, ptr %retval, align 8
  ret { i64, i64 } %4
}

; Function Attrs: mustprogress nounwind uwtable
define linkonce_odr dso_local noundef nonnull align 8 dereferenceable(8) ptr @_ZSt3minImERKT_S2_S2_(ptr noundef nonnull align 8 dereferenceable(8) %__a, ptr noundef nonnull align 8 dereferenceable(8) %__b) #1 comdat {
entry:
  %retval = alloca ptr, align 8
  %__a.addr = alloca ptr, align 8
  %__b.addr = alloca ptr, align 8
  store ptr %__a, ptr %__a.addr, align 8
  store ptr %__b, ptr %__b.addr, align 8
  %0 = load ptr, ptr %__b.addr, align 8
  %1 = load i64, ptr %0, align 8
  %2 = load ptr, ptr %__a.addr, align 8
  %3 = load i64, ptr %2, align 8
  %cmp = icmp ult i64 %1, %3
  br i1 %cmp, label %if.then, label %if.end

if.then:                                          ; preds = %entry
  %4 = load ptr, ptr %__b.addr, align 8
  store ptr %4, ptr %retval, align 8
  br label %return

if.end:                                           ; preds = %entry
  %5 = load ptr, ptr %__a.addr, align 8
  store ptr %5, ptr %retval, align 8
  br label %return

return:                                           ; preds = %if.end, %if.then
  %6 = load ptr, ptr %retval, align 8
  ret ptr %6
}

; Function Attrs: mustprogress nounwind uwtable
define linkonce_odr dso_local noundef i64 @_ZNK3net8QuicTime5Delta14ToMillisecondsEv(ptr noundef nonnull align 8 dereferenceable(16) %this) #1 comdat align 2 {
entry:
  %this.addr = alloca ptr, align 8
  store ptr %this, ptr %this.addr, align 8
  %this1 = load ptr, ptr %this.addr, align 8
  %time_offset_ = getelementptr inbounds %"class.net::QuicTime::Delta", ptr %this1, i32 0, i32 1
  %0 = load i64, ptr %time_offset_, align 8
  %div = sdiv i64 %0, 1000
  ret i64 %div
}

; Function Attrs: mustprogress uwtable
define linkonce_odr dso_local noundef nonnull align 8 dereferenceable(16) ptr @_ZN3net8QuicTime5DeltaaSEOS1_(ptr noundef nonnull align 8 dereferenceable(16) %this, ptr noundef nonnull align 8 dereferenceable(16) %0) #0 comdat align 2 {
entry:
  %this.addr = alloca ptr, align 8
  %.addr = alloca ptr, align 8
  %agg.tmp = alloca %"class.base::TimeDelta", align 8
  store ptr %this, ptr %this.addr, align 8
  store ptr %0, ptr %.addr, align 8
  %this1 = load ptr, ptr %this.addr, align 8
  %delta_ = getelementptr inbounds %"class.net::QuicTime::Delta", ptr %this1, i32 0, i32 0
  %1 = load ptr, ptr %.addr, align 8
  %delta_2 = getelementptr inbounds %"class.net::QuicTime::Delta", ptr %1, i32 0, i32 0
  call void @llvm.memcpy.p0.p0.i64(ptr align 8 %agg.tmp, ptr align 8 %delta_2, i64 8, i1 false)
  %coerce.dive = getelementptr inbounds %"class.base::TimeDelta", ptr %agg.tmp, i32 0, i32 0
  %2 = load i64, ptr %coerce.dive, align 8
  %call = call noundef nonnull align 8 dereferenceable(8) ptr @_ZN4base9TimeDeltaaSES0_(ptr noundef nonnull align 8 dereferenceable(8) %delta_, i64 %2)
  %3 = load ptr, ptr %.addr, align 8
  %time_offset_ = getelementptr inbounds %"class.net::QuicTime::Delta", ptr %3, i32 0, i32 1
  %4 = load i64, ptr %time_offset_, align 8
  %time_offset_3 = getelementptr inbounds %"class.net::QuicTime::Delta", ptr %this1, i32 0, i32 1
  store i64 %4, ptr %time_offset_3, align 8
  ret ptr %this1
}

; Function Attrs: mustprogress uwtable
define linkonce_odr dso_local { i64, i64 } @_ZN3net8QuicTime5Delta16FromMillisecondsEl(i64 noundef %ms) #0 comdat align 2 {
entry:
  %retval = alloca %"class.net::QuicTime::Delta", align 8
  %ms.addr = alloca i64, align 8
  store i64 %ms, ptr %ms.addr, align 8
  %0 = load i64, ptr %ms.addr, align 8
  %mul = mul nsw i64 %0, 1000
  call void @_ZN3net8QuicTime5DeltaC2El(ptr noundef nonnull align 8 dereferenceable(16) %retval, i64 noundef %mul)
  %1 = load { i64, i64 }, ptr %retval, align 8
  ret { i64, i64 } %1
}

; Function Attrs: mustprogress nounwind uwtable
define linkonce_odr dso_local noundef zeroext i1 @_ZNK3net8QuicTime5Delta6IsZeroEv(ptr noundef nonnull align 8 dereferenceable(16) %this) #1 comdat align 2 {
entry:
  %this.addr = alloca ptr, align 8
  store ptr %this, ptr %this.addr, align 8
  %this1 = load ptr, ptr %this.addr, align 8
  %time_offset_ = getelementptr inbounds %"class.net::QuicTime::Delta", ptr %this1, i32 0, i32 1
  %0 = load i64, ptr %time_offset_, align 8
  %cmp = icmp eq i64 %0, 0
  ret i1 %cmp
}

; Function Attrs: mustprogress nounwind uwtable
define linkonce_odr dso_local noundef ptr @_ZNKSt10unique_ptrIN3net22SendAlgorithmInterfaceESt14default_deleteIS1_EEptEv(ptr noundef nonnull align 8 dereferenceable(8) %this) #1 comdat align 2 {
entry:
  %this.addr = alloca ptr, align 8
  store ptr %this, ptr %this.addr, align 8
  %this1 = load ptr, ptr %this.addr, align 8
  %call = call noundef ptr @_ZNKSt10unique_ptrIN3net22SendAlgorithmInterfaceESt14default_deleteIS1_EE3getEv(ptr noundef nonnull align 8 dereferenceable(8) %this1) #11
  ret ptr %call
}

; Function Attrs: mustprogress uwtable
define dso_local { i64, i64 } @_ZNK3net21QuicSentPacketManager22GetRetransmissionDelayEv(ptr noundef nonnull align 8 dereferenceable(776) %this) #0 align 2 {
entry:
  %retval = alloca %"class.net::QuicTime::Delta", align 8
  %this.addr = alloca ptr, align 8
  %retransmission_delay = alloca %"class.net::QuicTime::Delta", align 8
  %ref.tmp = alloca %"class.net::QuicTime::Delta", align 8
  %ref.tmp8 = alloca %"class.net::QuicTime::Delta", align 8
  %ref.tmp12 = alloca %"class.net::QuicTime::Delta", align 8
  %agg.tmp = alloca %"class.net::QuicTime::Delta", align 8
  store ptr %this, ptr %this.addr, align 8
  %this1 = load ptr, ptr %this.addr, align 8
  %send_algorithm_ = getelementptr inbounds %"class.net::QuicSentPacketManager", ptr %this1, i32 0, i32 12
  %call = call noundef ptr @_ZNKSt10unique_ptrIN3net22SendAlgorithmInterfaceESt14default_deleteIS1_EEptEv(ptr noundef nonnull align 8 dereferenceable(8) %send_algorithm_) #11
  %vtable = load ptr, ptr %call, align 8
  %vfn = getelementptr inbounds ptr, ptr %vtable, i64 11
  %0 = load ptr, ptr %vfn, align 8
  %call2 = call { i64, i64 } %0(ptr noundef nonnull align 8 dereferenceable(8) %call)
  %1 = getelementptr inbounds { i64, i64 }, ptr %retransmission_delay, i32 0, i32 0
  %2 = extractvalue { i64, i64 } %call2, 0
  store i64 %2, ptr %1, align 8
  %3 = getelementptr inbounds { i64, i64 }, ptr %retransmission_delay, i32 0, i32 1
  %4 = extractvalue { i64, i64 } %call2, 1
  store i64 %4, ptr %3, align 8
  %call3 = call noundef zeroext i1 @_ZNK3net8QuicTime5Delta6IsZeroEv(ptr noundef nonnull align 8 dereferenceable(16) %retransmission_delay)
  br i1 %call3, label %if.then, label %if.else

if.then:                                          ; preds = %entry
  %call4 = call { i64, i64 } @_ZN3net8QuicTime5Delta16FromMillisecondsEl(i64 noundef 500)
  %5 = getelementptr inbounds { i64, i64 }, ptr %ref.tmp, i32 0, i32 0
  %6 = extractvalue { i64, i64 } %call4, 0
  store i64 %6, ptr %5, align 8
  %7 = getelementptr inbounds { i64, i64 }, ptr %ref.tmp, i32 0, i32 1
  %8 = extractvalue { i64, i64 } %call4, 1
  store i64 %8, ptr %7, align 8
  %call5 = call noundef nonnull align 8 dereferenceable(16) ptr @_ZN3net8QuicTime5DeltaaSEOS1_(ptr noundef nonnull align 8 dereferenceable(16) %retransmission_delay, ptr noundef nonnull align 8 dereferenceable(16) %ref.tmp)
  br label %if.end11

if.else:                                          ; preds = %entry
  %call6 = call noundef i64 @_ZNK3net8QuicTime5Delta14ToMillisecondsEv(ptr noundef nonnull align 8 dereferenceable(16) %retransmission_delay)
  %cmp = icmp slt i64 %call6, 200
  br i1 %cmp, label %if.then7, label %if.end

if.then7:                                         ; preds = %if.else
  %call9 = call { i64, i64 } @_ZN3net8QuicTime5Delta16FromMillisecondsEl(i64 noundef 200)
  %9 = getelementptr inbounds { i64, i64 }, ptr %ref.tmp8, i32 0, i32 0
  %10 = extractvalue { i64, i64 } %call9, 0
  store i64 %10, ptr %9, align 8
  %11 = getelementptr inbounds { i64, i64 }, ptr %ref.tmp8, i32 0, i32 1
  %12 = extractvalue { i64, i64 } %call9, 1
  store i64 %12, ptr %11, align 8
  %call10 = call noundef nonnull align 8 dereferenceable(16) ptr @_ZN3net8QuicTime5DeltaaSEOS1_(ptr noundef nonnull align 8 dereferenceable(16) %retransmission_delay, ptr noundef nonnull align 8 dereferenceable(16) %ref.tmp8)
  br label %if.end

if.end:                                           ; preds = %if.then7, %if.else
  br label %if.end11

if.end11:                                         ; preds = %if.end, %if.then
  call void @llvm.memcpy.p0.p0.i64(ptr align 8 %agg.tmp, ptr align 8 %retransmission_delay, i64 16, i1 false)
  %consecutive_rto_count_ = getelementptr inbounds %"class.net::QuicSentPacketManager", ptr %this1, i32 0, i32 19
  %call13 = call noundef nonnull align 8 dereferenceable(8) ptr @_ZSt3minImERKT_S2_S2_(ptr noundef nonnull align 8 dereferenceable(8) %consecutive_rto_count_, ptr noundef nonnull align 8 dereferenceable(8) @_ZN3net12_GLOBAL__N_119kMaxRetransmissionsE)
  %13 = load i64, ptr %call13, align 8
  %sh_prom = trunc i64 %13 to i32
  %shl = shl i32 1, %sh_prom
  %14 = getelementptr inbounds { i64, i64 }, ptr %agg.tmp, i32 0, i32 0
  %15 = load i64, ptr %14, align 8
  %16 = getelementptr inbounds { i64, i64 }, ptr %agg.tmp, i32 0, i32 1
  %17 = load i64, ptr %16, align 8
  %call14 = call { i64, i64 } @_ZN3netmlENS_8QuicTime5DeltaEi(i64 %15, i64 %17, i32 noundef %shl)
  %18 = getelementptr inbounds { i64, i64 }, ptr %ref.tmp12, i32 0, i32 0
  %19 = extractvalue { i64, i64 } %call14, 0
  store i64 %19, ptr %18, align 8
  %20 = getelementptr inbounds { i64, i64 }, ptr %ref.tmp12, i32 0, i32 1
  %21 = extractvalue { i64, i64 } %call14, 1
  store i64 %21, ptr %20, align 8
  %call15 = call noundef nonnull align 8 dereferenceable(16) ptr @_ZN3net8QuicTime5DeltaaSEOS1_(ptr noundef nonnull align 8 dereferenceable(16) %retransmission_delay, ptr noundef nonnull align 8 dereferenceable(16) %ref.tmp12)
  %call16 = call noundef i64 @_ZNK3net8QuicTime5Delta14ToMillisecondsEv(ptr noundef nonnull align 8 dereferenceable(16) %retransmission_delay)
  %cmp17 = icmp sgt i64 %call16, 60000
  br i1 %cmp17, label %if.then18, label %if.end20

if.then18:                                        ; preds = %if.end11
  %call19 = call { i64, i64 } @_ZN3net8QuicTime5Delta16FromMillisecondsEl(i64 noundef 60000)
  %22 = getelementptr inbounds { i64, i64 }, ptr %retval, i32 0, i32 0
  %23 = extractvalue { i64, i64 } %call19, 0
  store i64 %23, ptr %22, align 8
  %24 = getelementptr inbounds { i64, i64 }, ptr %retval, i32 0, i32 1
  %25 = extractvalue { i64, i64 } %call19, 1
  store i64 %25, ptr %24, align 8
  br label %return

if.end20:                                         ; preds = %if.end11
  call void @llvm.memcpy.p0.p0.i64(ptr align 8 %retval, ptr align 8 %retransmission_delay, i64 16, i1 false)
  br label %return

return:                                           ; preds = %if.end20, %if.then18
  %26 = load { i64, i64 }, ptr %retval, align 8
  ret { i64, i64 } %26
}