; Function Attrs: mustprogress uwtable
define dso_local { i64, i64 } @_ZNK3net21QuicSentPacketManager22GetRetransmissionDelayEv(ptr nocapture noundef nonnull readonly align 8 dereferenceable(776) %this) local_unnamed_addr #0 align 2 {
entry:
  %send_algorithm_ = getelementptr inbounds i8, ptr %this, i64 488
  %0 = load ptr, ptr %send_algorithm_, align 8
  %vtable = load ptr, ptr %0, align 8
  %vfn = getelementptr inbounds i8, ptr %vtable, i64 88
  %1 = load ptr, ptr %vfn, align 8
  %call2 = tail call { i64, i64 } %1(ptr noundef nonnull align 8 dereferenceable(8) %0)
  %2 = extractvalue { i64, i64 } %call2, 1
  %cmp.i = icmp eq i64 %2, 0
  %spec.select = tail call i64 @llvm.smax.i64(i64 %2, i64 200000)
  %retransmission_delay.sroa.6.0 = select i1 %cmp.i, i64 500000, i64 %spec.select
  %consecutive_rto_count_ = getelementptr inbounds i8, ptr %this, i64 568
  %3 = load i64, ptr %consecutive_rto_count_, align 8
  %4 = tail call i64 @llvm.umin.i64(i64 %3, i64 10)
  %mul.i = shl i64 %retransmission_delay.sroa.6.0, %4
  %cmp17 = icmp sgt i64 %mul.i, 60000999
  %spec.select18 = select i1 %cmp17, i64 60000000, i64 %mul.i
  %.fca.1.insert = insertvalue { i64, i64 } { i64 0, i64 poison }, i64 %spec.select18, 1
  ret { i64, i64 } %.fca.1.insert
}